(lp0
(dp1
S'name'
p2
S'tomato'
p3
sS'val'
p4
S'3'
p5
sa(dp6
S'name'
p7
S'carrot'
p8
sS'val'
p9
S'4'
p10
sa(dp11
S'name'
p12
S'sdkk'
p13
sS'val'
p14
S'9'
p15
sa(dp16
S'name'
p17
S'dish'
p18
sS'val'
p19
I6
sa.